target datalayout = "e-m:e-p270:32:32-p271:32:32-p272:64:64-i64:64-i128:128-f80:128-n8:16:32:64-S128"
target triple = "x86_64-pc-linux-gnu"

%class.b3LauncherCL = type { ptr, ptr, ptr, i32, [4 x i8], %class.b3AlignedObjectArray, i32, i8, ptr, %class.b3AlignedObjectArray.0 }
%class.b3AlignedObjectArray = type <{ [4 x i8], i32, i32, [4 x i8], ptr, i8, [7 x i8] }>
%class.b3AlignedObjectArray.0 = type <{ [4 x i8], i32, i32, [4 x i8], ptr, i8, [7 x i8] }>

@.str.2 = private unnamed_addr constant [3 x i8] c"wb\00", align 1

; Function Attrs: mustprogress nounwind uwtable
define linkonce_odr dso_local noundef i32 @_ZNK12b3LauncherCL26getSerializationBufferSizeEv(ptr noundef nonnull align 8 dereferenceable(112) %0) #2 comdat align 2 {
  %2 = alloca ptr, align 8
  store ptr %0, ptr %2, align 8, !tbaa !4
  %3 = load ptr, ptr %2, align 8
  %4 = getelementptr inbounds nuw %class.b3LauncherCL, ptr %3, i32 0, i32 6
  %5 = load i32, ptr %4, align 8, !tbaa !35
  ret i32 %5
}

; Function Attrs: mustprogress uwtable
define dso_local void @_ZN12b3LauncherCL15serializeToFileEPKci(ptr noundef nonnull align 8 dereferenceable(112) %0, ptr noundef %1, i32 noundef %2) #0 align 2 {
  %4 = alloca ptr, align 8
  %5 = alloca ptr, align 8
  %6 = alloca i32, align 4
  %7 = alloca i32, align 4
  %8 = alloca i32, align 4
  %9 = alloca ptr, align 8
  %10 = alloca i32, align 4
  %11 = alloca ptr, align 8
  %12 = alloca ptr, align 8
  %13 = alloca ptr, align 8
  store ptr %0, ptr %4, align 8, !tbaa !4
  store ptr %1, ptr %5, align 8, !tbaa !13
  store i32 %2, ptr %6, align 4, !tbaa !34
  %14 = load ptr, ptr %4, align 8
  call void @llvm.lifetime.start.p0(i64 4, ptr %7) #10
  %15 = load i32, ptr %6, align 4, !tbaa !34
  store i32 %15, ptr %7, align 4, !tbaa !34
  call void @llvm.lifetime.start.p0(i64 4, ptr %8) #10
  %16 = call noundef i32 @_ZNK12b3LauncherCL26getSerializationBufferSizeEv(ptr noundef nonnull align 8 dereferenceable(112) %14)
  store i32 %16, ptr %8, align 4, !tbaa !34
  call void @llvm.lifetime.start.p0(i64 8, ptr %9) #10
  %17 = load i32, ptr %8, align 4, !tbaa !34
  %18 = sext i32 %17 to i64
  %19 = add i64 %18, 4
  %20 = call noalias noundef nonnull ptr @_Znam(i64 noundef %19) #13
  store ptr %20, ptr %9, align 8, !tbaa !13
  call void @llvm.lifetime.start.p0(i64 4, ptr %10) #10
  store i32 0, ptr %10, align 4, !tbaa !34
  br label %21

21:                                               ; preds = %33, %3
  %22 = load i32, ptr %10, align 4, !tbaa !34
  %23 = load i32, ptr %8, align 4, !tbaa !34
  %24 = add nsw i32 %23, 1
  %25 = icmp slt i32 %22, %24
  br i1 %25, label %27, label %26

26:                                               ; preds = %21
  call void @llvm.lifetime.end.p0(i64 4, ptr %10) #10
  br label %36

27:                                               ; preds = %21
  call void @llvm.lifetime.start.p0(i64 8, ptr %11) #10
  %28 = load ptr, ptr %9, align 8, !tbaa !13
  %29 = load i32, ptr %10, align 4, !tbaa !34
  %30 = sext i32 %29 to i64
  %31 = getelementptr inbounds i8, ptr %28, i64 %30
  store ptr %31, ptr %11, align 8, !tbaa !13
  %32 = load ptr, ptr %11, align 8, !tbaa !13
  store i8 -1, ptr %32, align 1, !tbaa !51
  call void @llvm.lifetime.end.p0(i64 8, ptr %11) #10
  br label %33

33:                                               ; preds = %27
  %34 = load i32, ptr %10, align 4, !tbaa !34
  %35 = add nsw i32 %34, 1
  store i32 %35, ptr %10, align 4, !tbaa !34
  br label %21, !llvm.loop !86

36:                                               ; preds = %26
  call void @llvm.lifetime.start.p0(i64 8, ptr %12) #10
  %37 = load ptr, ptr %9, align 8, !tbaa !13
  %38 = load i32, ptr %8, align 4, !tbaa !34
  %39 = sext i32 %38 to i64
  %40 = getelementptr inbounds i8, ptr %37, i64 %39
  store ptr %40, ptr %12, align 8, !tbaa !83
  %41 = load i32, ptr %7, align 4, !tbaa !34
  %42 = load ptr, ptr %12, align 8, !tbaa !83
  store i32 %41, ptr %42, align 4, !tbaa !34
  call void @llvm.lifetime.start.p0(i64 8, ptr %13) #10
  %43 = load ptr, ptr %5, align 8, !tbaa !13
  %44 = call noalias ptr @fopen(ptr noundef %43, ptr noundef @.str.2)
  store ptr %44, ptr %13, align 8, !tbaa !87
  %45 = load ptr, ptr %9, align 8, !tbaa !13
  %46 = load i32, ptr %8, align 4, !tbaa !34
  %47 = sext i32 %46 to i64
  %48 = add i64 %47, 4
  %49 = load ptr, ptr %13, align 8, !tbaa !87
  %50 = call i64 @fwrite(ptr noundef %45, i64 noundef %48, i64 noundef 1, ptr noundef %49)
  %51 = load ptr, ptr %13, align 8, !tbaa !87
  %52 = call i32 @fclose(ptr noundef %51)
  %53 = load ptr, ptr %9, align 8, !tbaa !13
  %54 = icmp eq ptr %53, null
  br i1 %54, label %56, label %55

55:                                               ; preds = %36
  call void @_ZdaPv(ptr noundef %53) #12
  br label %56

56:                                               ; preds = %55, %36
  call void @llvm.lifetime.end.p0(i64 8, ptr %13) #10
  call void @llvm.lifetime.end.p0(i64 8, ptr %12) #10
  call void @llvm.lifetime.end.p0(i64 8, ptr %9) #10
  call void @llvm.lifetime.end.p0(i64 4, ptr %8) #10
  call void @llvm.lifetime.end.p0(i64 4, ptr %7) #10
  ret void
}