; Function Attrs: mustprogress uwtable
define dso_local void @_ZN12b3LauncherCL15serializeToFileEPKci(ptr noundef nonnull readonly align 8 captures(none) dereferenceable(112) %0, ptr noundef readonly captures(none) %1, i32 noundef %2) local_unnamed_addr #7 align 2 {
  %4 = getelementptr inbounds nuw i8, ptr %0, i64 64
  %5 = load i32, ptr %4, align 8, !tbaa !38
  %6 = sext i32 %5 to i64
  %7 = add nsw i64 %6, 4
  %8 = tail call noalias noundef nonnull ptr @_Znam(i64 noundef %7) #16
  %.not18 = icmp slt i32 %5, 0
  br i1 %.not18, label %._crit_edge, label %.lr.ph.preheader

.lr.ph.preheader:                                 ; preds = %3
  %9 = add nuw i32 %5, 1
  %10 = zext i32 %9 to i64
  tail call void @llvm.memset.p0.i64(ptr noundef nonnull align 1 dereferenceable(1) %8, i8 -1, i64 %10, i1 false), !tbaa !48
  br label %._crit_edge

._crit_edge:                                      ; preds = %.lr.ph.preheader, %3
  %11 = getelementptr inbounds i8, ptr %8, i64 %6
  store i32 %2, ptr %11, align 4, !tbaa !37
  %12 = tail call noalias ptr @fopen(ptr noundef %1, ptr noundef nonnull @.str.2)
  %13 = tail call i64 @fwrite(ptr noundef nonnull %8, i64 noundef %7, i64 noundef 1, ptr noundef %12)
  %14 = tail call i32 @fclose(ptr noundef %12)
  tail call void @_ZdaPv(ptr noundef nonnull %8) #15
  ret void
}